; Function Attrs: mustprogress nofree norecurse nosync nounwind willreturn memory(read, inaccessiblemem: none) uwtable
define hidden noundef ptr @_ZNK12GraphBuilder9ScopeData9xhandlersEv(ptr nocapture noundef nonnull readonly align 8 dereferenceable(137) %0) local_unnamed_addr #5 align 2 {
  %2 = getelementptr inbounds i8, ptr %0, i64 96
  %3 = load ptr, ptr %2, align 8
  %4 = icmp eq ptr %3, null
  br i1 %4, label %5, label %10

5:                                                ; preds = %1
  %6 = getelementptr inbounds i8, ptr %0, i64 16
  %7 = load ptr, ptr %6, align 8
  %8 = getelementptr inbounds i8, ptr %7, i64 56
  %9 = load ptr, ptr %8, align 8
  br label %10

10:                                               ; preds = %1, %5
  %.0 = phi ptr [ %9, %5 ], [ %3, %1 ]
  ret ptr %.0
}